target datalayout = "e-m:e-p270:32:32-p271:32:32-p272:64:64-i64:64-i128:128-f80:128-n8:16:32:64-S128"
target triple = "x86_64-pc-linux-gnu"

%struct.AVRational = type { i32, i32 }
%struct.MOVAtom = type { i32, i64 }
%struct.MOVContext = type { ptr, ptr, i32, i64, i32, i32, i32, i32, i32, i32, ptr, i32, ptr, ptr, i32, %struct.MOVFragment, ptr, i32, i32, i32, ptr, i32, i32, i32, i32, i32, i32, i32, i64, i32, i32, ptr, i32, i32, i32, i32, i32, %struct.MOVFragmentIndex, i32, i32, [20 x i8], [20 x i8], ptr, i32, ptr, i32, ptr, i32, ptr, i32, ptr, ptr, i32, i32, [3 x [3 x i32]], i32, i32, i32, i32, i32, ptr, i32, ptr, i32, i32, i64, i32 }
%struct.MOVFragment = type { i32, i32, i64, i64, i64, i32, i32, i32, i32 }
%struct.MOVFragmentIndex = type { i32, i32, i32, i32, ptr }
%struct.AVFormatContext = type { ptr, ptr, ptr, ptr, ptr, i32, i32, ptr, i32, ptr, i32, ptr, ptr, i64, i64, i64, i32, i32, i32, i64, i64, ptr, i32, i32, ptr, i32, i32, i32, i32, ptr, i64, i32, i32, %struct.AVIOInterruptCB, i32, i32, i32, i32, i64, i32, i32, i32, i32, i32, i32, i32, i32, i32, i32, i32, i32, i64, i32, i32, i32, i32, i32, ptr, ptr, ptr, ptr, i32, ptr, ptr, ptr, ptr, i32, ptr, ptr, i64, ptr, ptr, ptr, i64 }
%struct.AVIOInterruptCB = type { ptr, ptr }
%struct.AVStream = type { ptr, i32, i32, ptr, ptr, %struct.AVRational, i64, i64, i64, i32, i32, %struct.AVRational, ptr, %struct.AVRational, %struct.AVPacket, i32, %struct.AVRational, i32 }
%struct.AVPacket = type { ptr, i64, i64, ptr, i32, i32, i32, ptr, i32, i64, i64, ptr, ptr, %struct.AVRational }
%struct.MOVStreamContext = type { ptr, i32, i32, i32, i32, i32, i32, ptr, i32, i32, ptr, i32, i32, ptr, i32, ptr, i32, i32, ptr, i32, ptr, i32, i32, i32, ptr, ptr, i32, i32, i32, i32, i32, i32, ptr, i32, i32, ptr, i32, i64, i64, i32, i64, ptr, ptr, i32, i32, i32, i32, i16, i32, ptr, i32, i32, i32, i32, i32, i32, i32, i32, i32, [256 x i32], i32, i64, i32, i8, i64, i32, i32, ptr, i32, ptr, ptr, i32, ptr, i32, ptr, i32, i32, i32, i64, ptr, ptr, i32, i32, i32, ptr, ptr, i64, ptr, i64, ptr, i64, ptr, i64, ptr, i64, i32, i32, %struct.anon, ptr, i32 }
%struct.anon = type { ptr, ptr, i32, ptr, ptr }

@.str.113 = private unnamed_addr constant [32 x i8] c"pasp: hSpacing %d, vSpacing %d\0A\00", align 1

; Function Attrs: nounwind uwtable
define internal i32 @mov_read_pasp(ptr noundef %0, ptr noundef %1, i32 %2, i64 %3) #0 {
  %5 = alloca i32, align 4
  %6 = alloca %struct.MOVAtom, align 8
  %7 = alloca ptr, align 8
  %8 = alloca ptr, align 8
  %9 = alloca i32, align 4
  %10 = alloca i32, align 4
  %11 = alloca ptr, align 8
  %12 = alloca ptr, align 8
  %13 = alloca i32, align 4
  %14 = getelementptr inbounds nuw { i32, i64 }, ptr %6, i32 0, i32 0
  store i32 %2, ptr %14, align 8
  %15 = getelementptr inbounds nuw { i32, i64 }, ptr %6, i32 0, i32 1
  store i64 %3, ptr %15, align 8
  store ptr %0, ptr %7, align 8, !tbaa !4
  store ptr %1, ptr %8, align 8, !tbaa !9
  call void @llvm.lifetime.start.p0(i64 4, ptr %9) #14
  %16 = load ptr, ptr %8, align 8, !tbaa !9
  %17 = call i32 @avio_rb32(ptr noundef %16)
  store i32 %17, ptr %9, align 4, !tbaa !11
  call void @llvm.lifetime.start.p0(i64 4, ptr %10) #14
  %18 = load ptr, ptr %8, align 8, !tbaa !9
  %19 = call i32 @avio_rb32(ptr noundef %18)
  store i32 %19, ptr %10, align 4, !tbaa !11
  call void @llvm.lifetime.start.p0(i64 8, ptr %11) #14
  call void @llvm.lifetime.start.p0(i64 8, ptr %12) #14
  %20 = load ptr, ptr %7, align 8, !tbaa !4
  %21 = getelementptr inbounds nuw %struct.MOVContext, ptr %20, i32 0, i32 1
  %22 = load ptr, ptr %21, align 8, !tbaa !13
  %23 = getelementptr inbounds nuw %struct.AVFormatContext, ptr %22, i32 0, i32 6
  %24 = load i32, ptr %23, align 4, !tbaa !30
  %25 = icmp ult i32 %24, 1
  br i1 %25, label %26, label %27

26:                                               ; preds = %4
  store i32 0, ptr %5, align 4
  store i32 1, ptr %13, align 4
  br label %60

27:                                               ; preds = %4
  %28 = load ptr, ptr %7, align 8, !tbaa !4
  %29 = getelementptr inbounds nuw %struct.MOVContext, ptr %28, i32 0, i32 1
  %30 = load ptr, ptr %29, align 8, !tbaa !13
  %31 = getelementptr inbounds nuw %struct.AVFormatContext, ptr %30, i32 0, i32 7
  %32 = load ptr, ptr %31, align 8, !tbaa !41
  %33 = load ptr, ptr %7, align 8, !tbaa !4
  %34 = getelementptr inbounds nuw %struct.MOVContext, ptr %33, i32 0, i32 1
  %35 = load ptr, ptr %34, align 8, !tbaa !13
  %36 = getelementptr inbounds nuw %struct.AVFormatContext, ptr %35, i32 0, i32 6
  %37 = load i32, ptr %36, align 4, !tbaa !30
  %38 = sub i32 %37, 1
  %39 = zext i32 %38 to i64
  %40 = getelementptr inbounds nuw ptr, ptr %32, i64 %39
  %41 = load ptr, ptr %40, align 8, !tbaa !42
  store ptr %41, ptr %11, align 8, !tbaa !42
  %42 = load ptr, ptr %11, align 8, !tbaa !42
  %43 = getelementptr inbounds nuw %struct.AVStream, ptr %42, i32 0, i32 4
  %44 = load ptr, ptr %43, align 8, !tbaa !44
  store ptr %44, ptr %12, align 8, !tbaa !51
  %45 = load ptr, ptr %7, align 8, !tbaa !4
  %46 = getelementptr inbounds nuw %struct.MOVContext, ptr %45, i32 0, i32 1
  %47 = load ptr, ptr %46, align 8, !tbaa !13
  %48 = load i32, ptr %9, align 4, !tbaa !11
  %49 = load i32, ptr %10, align 4, !tbaa !11
  call void (ptr, i32, ptr, ...) @av_log(ptr noundef %47, i32 noundef 56, ptr noundef @.str.113, i32 noundef %48, i32 noundef %49)
  %50 = load i32, ptr %10, align 4, !tbaa !11
  %51 = icmp ne i32 %50, 0
  br i1 %51, label %52, label %59

52:                                               ; preds = %27
  %53 = load i32, ptr %9, align 4, !tbaa !11
  %54 = load ptr, ptr %12, align 8, !tbaa !51
  %55 = getelementptr inbounds nuw %struct.MOVStreamContext, ptr %54, i32 0, i32 56
  store i32 %53, ptr %55, align 8, !tbaa !352
  %56 = load i32, ptr %10, align 4, !tbaa !11
  %57 = load ptr, ptr %12, align 8, !tbaa !51
  %58 = getelementptr inbounds nuw %struct.MOVStreamContext, ptr %57, i32 0, i32 57
  store i32 %56, ptr %58, align 4, !tbaa !353
  br label %59

59:                                               ; preds = %52, %27
  store i32 0, ptr %5, align 4
  store i32 1, ptr %13, align 4
  br label %60

60:                                               ; preds = %59, %26
  call void @llvm.lifetime.end.p0(i64 8, ptr %12) #14
  call void @llvm.lifetime.end.p0(i64 8, ptr %11) #14
  call void @llvm.lifetime.end.p0(i64 4, ptr %10) #14
  call void @llvm.lifetime.end.p0(i64 4, ptr %9) #14
  %61 = load i32, ptr %5, align 4
  ret i32 %61
}