; Function Attrs: nounwind uwtable
define internal noundef i32 @mov_read_pasp(ptr noundef readonly captures(none) %0, ptr noundef %1, i32 %2, i64 %3) #0 {
  %5 = tail call i32 @avio_rb32(ptr noundef %1) #16
  %6 = tail call i32 @avio_rb32(ptr noundef %1) #16
  %7 = getelementptr inbounds nuw i8, ptr %0, i64 8
  %8 = load ptr, ptr %7, align 8, !tbaa !4
  %9 = getelementptr inbounds nuw i8, ptr %8, i64 44
  %10 = load i32, ptr %9, align 4, !tbaa !25
  %11 = icmp eq i32 %10, 0
  br i1 %11, label %24, label %12

12:                                               ; preds = %4
  %13 = getelementptr inbounds nuw i8, ptr %8, i64 48
  %14 = load ptr, ptr %13, align 8, !tbaa !37
  %15 = add i32 %10, -1
  %16 = zext i32 %15 to i64
  %17 = getelementptr inbounds nuw ptr, ptr %14, i64 %16
  %18 = load ptr, ptr %17, align 8, !tbaa !38
  %19 = getelementptr inbounds nuw i8, ptr %18, i64 24
  %20 = load ptr, ptr %19, align 8, !tbaa !40
  tail call void (ptr, i32, ptr, ...) @av_log(ptr noundef nonnull %8, i32 noundef 56, ptr noundef nonnull @.str.113, i32 noundef %5, i32 noundef %6) #16
  %.not = icmp eq i32 %6, 0
  br i1 %.not, label %24, label %21

21:                                               ; preds = %12
  %22 = getelementptr inbounds nuw i8, ptr %20, i64 312
  store i32 %5, ptr %22, align 8, !tbaa !455
  %23 = getelementptr inbounds nuw i8, ptr %20, i64 316
  store i32 %6, ptr %23, align 4, !tbaa !456
  br label %24

24:                                               ; preds = %12, %21, %4
  ret i32 0
}